; Function Attrs: mustprogress uwtable
define hidden void @_ZN2cv7details10ChessboardC1ERKNS1_10ParametersE(ptr noundef nonnull align 8 dereferenceable(36) %0, ptr noundef nonnull readonly align 4 captures(none) dereferenceable(27) %1) unnamed_addr #5 align 2 personality ptr @__gxx_personality_v0 {
  tail call void @_ZN2cv9AlgorithmC2Ev(ptr noundef nonnull align 8 dereferenceable(8) %0)
  store ptr getelementptr inbounds nuw inrange(-80, 152) (i8, ptr @_ZTVN2cv7details10ChessboardE, i64 80), ptr %0, align 8, !tbaa !3
  %3 = getelementptr inbounds nuw i8, ptr %0, i64 8
  store i64 25769803785, ptr %3, align 8
  %4 = getelementptr inbounds nuw i8, ptr %0, i64 16
  store i32 3, ptr %4, align 8, !tbaa !716
  %5 = getelementptr inbounds nuw i8, ptr %0, i64 20
  store i32 4, ptr %5, align 4, !tbaa !718
  %6 = getelementptr inbounds nuw i8, ptr %0, i64 32
  store i8 1, ptr %6, align 8, !tbaa !719
  %7 = getelementptr inbounds nuw i8, ptr %0, i64 24
  store i32 200, ptr %7, align 8, !tbaa !720
  %8 = getelementptr inbounds nuw i8, ptr %0, i64 28
  store i32 50, ptr %8, align 4, !tbaa !721
  %9 = getelementptr inbounds nuw i8, ptr %0, i64 33
  store i8 0, ptr %9, align 1, !tbaa !722
  %10 = getelementptr inbounds nuw i8, ptr %0, i64 34
  store i8 0, ptr %10, align 2, !tbaa !723
  tail call void @llvm.memcpy.p0.p0.i64(ptr noundef nonnull align 8 dereferenceable(27) %3, ptr noundef nonnull readonly align 4 dereferenceable(27) %1, i64 27, i1 false), !tbaa.struct !724
  ret void
}